target datalayout = "e-m:e-p270:32:32-p271:32:32-p272:64:64-i64:64-i128:128-f80:128-n8:16:32:64-S128"
target triple = "x86_64-pc-linux-gnu"

@hf_ipmi_se_24_sensor = internal global i32 0, align 4
@hf_ipmi_se_24_mask = internal global i32 0, align 4
@hf_ipmi_se_24_hyst_pos = internal global i32 0, align 4
@hf_ipmi_se_24_hyst_neg = internal global i32 0, align 4

; Function Attrs: null_pointer_is_valid sspstrong uwtable
define internal void @rq24(ptr noundef %0, ptr noundef %1, ptr noundef %2) #0 {
  %4 = alloca ptr, align 8
  %5 = alloca ptr, align 8
  %6 = alloca ptr, align 8
  store ptr %0, ptr %4, align 8
  store ptr %1, ptr %5, align 8
  store ptr %2, ptr %6, align 8
  %7 = load ptr, ptr %6, align 8
  %8 = load i32, ptr @hf_ipmi_se_24_sensor, align 4
  %9 = load ptr, ptr %4, align 8
  %10 = call ptr @proto_tree_add_item(ptr noundef %7, i32 noundef %8, ptr noundef %9, i32 noundef 0, i32 noundef 1, i32 noundef -2147483648)
  %11 = load ptr, ptr %6, align 8
  %12 = load i32, ptr @hf_ipmi_se_24_mask, align 4
  %13 = load ptr, ptr %4, align 8
  %14 = call ptr @proto_tree_add_item(ptr noundef %11, i32 noundef %12, ptr noundef %13, i32 noundef 1, i32 noundef 1, i32 noundef -2147483648)
  %15 = load ptr, ptr %6, align 8
  %16 = load i32, ptr @hf_ipmi_se_24_hyst_pos, align 4
  %17 = load ptr, ptr %4, align 8
  %18 = call ptr @proto_tree_add_item(ptr noundef %15, i32 noundef %16, ptr noundef %17, i32 noundef 2, i32 noundef 1, i32 noundef -2147483648)
  %19 = load ptr, ptr %6, align 8
  %20 = load i32, ptr @hf_ipmi_se_24_hyst_neg, align 4
  %21 = load ptr, ptr %4, align 8
  %22 = call ptr @proto_tree_add_item(ptr noundef %19, i32 noundef %20, ptr noundef %21, i32 noundef 3, i32 noundef 1, i32 noundef -2147483648)
  ret void
}